; Function Attrs: mustprogress nounwind uwtable
define hidden void @_ZN11ZBarrierSet15clone_obj_arrayEP15objArrayOopDescS1_(ptr noundef %0, ptr noundef %1) local_unnamed_addr #0 align 2 {
  %3 = load i8, ptr @UseCompressedClassPointers, align 1
  %4 = trunc i8 %3 to i1
  %5 = select i1 %4, i32 16, i32 20
  %6 = load i8, ptr @UseCompressedOops, align 1
  %7 = trunc i8 %6 to i1
  %narrow.i.i.i = add nuw nsw i32 %5, 7
  %8 = and i32 %narrow.i.i.i, 24
  %9 = select i1 %7, i32 %5, i32 %8
  %10 = ptrtoint ptr %0 to i64
  %11 = zext nneg i32 %9 to i64
  %12 = add nsw i64 %11, %10
  %13 = inttoptr i64 %12 to ptr
  %14 = select i1 %4, i64 12, i64 16
  %15 = getelementptr inbounds i8, ptr %0, i64 %14
  %16 = load i32, ptr %15, align 4
  %17 = sext i32 %16 to i64
  %18 = getelementptr inbounds i64, ptr %13, i64 %17
  %19 = icmp sgt i32 %16, 0
  br i1 %19, label %.lr.ph.preheader, label %._crit_edge

.lr.ph.preheader:                                 ; preds = %2
  %20 = ptrtoint ptr %1 to i64
  %21 = add nsw i64 %11, %20
  %22 = inttoptr i64 %21 to ptr
  br label %.lr.ph

.lr.ph:                                           ; preds = %.lr.ph.preheader, %.lr.ph
  %.015 = phi ptr [ %33, %.lr.ph ], [ %13, %.lr.ph.preheader ]
  %.01214 = phi ptr [ %34, %.lr.ph ], [ %22, %.lr.ph.preheader ]
  %23 = load volatile i64, ptr %.015, align 8
  %24 = tail call noundef i64 @_ZN8ZBarrier35load_barrier_on_oop_field_preloadedEPV8zpointerS0_(ptr noundef nonnull %.015, i64 noundef %23)
  tail call void @_ZN8ZBarrier31store_barrier_on_heap_oop_fieldEPV8zpointerb(ptr noundef %.01214, i1 noundef zeroext false)
  %25 = load i64, ptr @ZPointerStoreGoodMask, align 8
  %26 = lshr i64 %25, 12
  %27 = and i64 %26, 15
  %28 = getelementptr inbounds [9 x i32], ptr @_ZL22ZPointerLoadShiftTable, i64 0, i64 %27
  %29 = load i32, ptr %28, align 4
  %30 = zext nneg i32 %29 to i64
  %31 = shl i64 %24, %30
  %32 = or i64 %31, %25
  store volatile i64 %32, ptr %.01214, align 8
  %33 = getelementptr inbounds i8, ptr %.015, i64 8
  %34 = getelementptr inbounds i8, ptr %.01214, i64 8
  %35 = icmp ult ptr %33, %18
  br i1 %35, label %.lr.ph, label %._crit_edge, !llvm.loop !12

._crit_edge:                                      ; preds = %.lr.ph, %2
  ret void
}